target datalayout = "e-m:e-p270:32:32-p271:32:32-p272:64:64-i64:64-i128:128-f80:128-n8:16:32:64-S128"
target triple = "x86_64-pc-linux-gnu"

%struct.access_mask_info = type { ptr, ptr, ptr, ptr }
%struct._e_guid_t = type { i32, i16, i16, [8 x i8] }
%struct._dcerpc_info = type { ptr, i32, i64, i8, i8, i8, i32, i32, i32, i32, i32, i32, i32, i32, ptr, ptr, ptr, ptr, %struct.anon }
%struct.anon = type { i8, ptr, ptr, ptr, i8 }
%struct._dcerpc_call_value = type { %struct._e_guid_t, i16, %struct._e_guid_t, i16, i32, %struct.nstime_t, i32, i32, ptr, ptr, ptr, i32 }
%struct.nstime_t = type { i64, i32 }
%struct._packet_info = type { ptr, ptr, i32, i32, %struct.nstime_t, %struct.nstime_t, %struct.nstime_t, i8, ptr, ptr, ptr, ptr, %struct._address, %struct._address, %struct._address, %struct._address, %struct._address, %struct._address, i32, ptr, i8, [3 x i8], %struct.anon.0, i32, i32, i32, i32, ptr, i8, ptr, ptr, i16, i16, i32, i32, i16, i32, i32, ptr, ptr, ptr, i8, i8, i16, i16, i16, i32, i16, i16, ptr, ptr, ptr, ptr, ptr, i32, i32 }
%struct._address = type { i32, i32, ptr, ptr }
%struct.anon.0 = type { i8, [3 x i8] }

@samr_connect_access_mask_info = internal global %struct.access_mask_info { ptr @.str.968, ptr @samr_connect_specific_rights, ptr null, ptr null }, align 8
@samr_alias_access_mask_info = internal global %struct.access_mask_info { ptr @.str.969, ptr @samr_alias_specific_rights, ptr null, ptr null }, align 8
@samr_group_access_mask_info = internal global %struct.access_mask_info { ptr @.str.970, ptr @samr_group_specific_rights, ptr null, ptr null }, align 8
@samr_domain_access_mask_info = internal global %struct.access_mask_info { ptr @.str.971, ptr @samr_domain_specific_rights, ptr null, ptr null }, align 8
@samr_user_access_mask_info = internal global %struct.access_mask_info { ptr @.str.972, ptr @samr_user_specific_rights, ptr null, ptr null }, align 8
@hf_samr_sec_desc_buf_len = internal global i32 0, align 4

; Function Attrs: null_pointer_is_valid sspstrong uwtable
define internal i32 @cnf_dissect_sec_desc_buf_(ptr noundef %0, i32 noundef %1, ptr noundef %2, ptr noundef %3, ptr noundef %4, ptr noundef %5) #0 {
  %7 = alloca i32, align 4
  %8 = alloca ptr, align 8
  %9 = alloca i32, align 4
  %10 = alloca ptr, align 8
  %11 = alloca ptr, align 8
  %12 = alloca ptr, align 8
  %13 = alloca ptr, align 8
  %14 = alloca i64, align 8
  %15 = alloca ptr, align 8
  %16 = alloca ptr, align 8
  %17 = alloca i32, align 4
  %18 = alloca ptr, align 8
  %19 = alloca i32, align 4
  store ptr %0, ptr %8, align 8
  store i32 %1, ptr %9, align 4
  store ptr %2, ptr %10, align 8
  store ptr %3, ptr %11, align 8
  store ptr %4, ptr %12, align 8
  store ptr %5, ptr %13, align 8
  call void @llvm.lifetime.start.p0(i64 8, ptr %14) #4
  call void @llvm.lifetime.start.p0(i64 8, ptr %15) #4
  store ptr null, ptr %15, align 8
  call void @llvm.lifetime.start.p0(i64 8, ptr %16) #4
  store ptr null, ptr %16, align 8
  call void @llvm.lifetime.start.p0(i64 4, ptr %17) #4
  store i32 0, ptr %17, align 4
  call void @llvm.lifetime.start.p0(i64 8, ptr %18) #4
  store ptr null, ptr %18, align 8
  %20 = load ptr, ptr %12, align 8
  %21 = getelementptr inbounds nuw %struct._dcerpc_info, ptr %20, i32 0, i32 4
  %22 = load i8, ptr %21, align 1, !range !6, !noundef !7
  %23 = trunc i8 %22 to i1
  br i1 %23, label %24, label %26

24:                                               ; preds = %6
  %25 = load i32, ptr %9, align 4
  store i32 %25, ptr %7, align 4
  store i32 1, ptr %19, align 4
  br label %75

26:                                               ; preds = %6
  %27 = load ptr, ptr %8, align 8
  %28 = load i32, ptr %9, align 4
  %29 = load ptr, ptr %10, align 8
  %30 = load ptr, ptr %11, align 8
  %31 = load ptr, ptr %12, align 8
  %32 = load ptr, ptr %13, align 8
  %33 = load i32, ptr @hf_samr_sec_desc_buf_len, align 4
  %34 = call i32 @dissect_ndr_uint3264(ptr noundef %27, i32 noundef %28, ptr noundef %29, ptr noundef %30, ptr noundef %31, ptr noundef %32, i32 noundef %33, ptr noundef %14)
  store i32 %34, ptr %9, align 4
  %35 = load ptr, ptr %12, align 8
  %36 = getelementptr inbounds nuw %struct._dcerpc_info, ptr %35, i32 0, i32 14
  %37 = load ptr, ptr %36, align 8
  store ptr %37, ptr %16, align 8
  %38 = load ptr, ptr %16, align 8
  %39 = icmp ne ptr %38, null
  br i1 %39, label %40, label %44

40:                                               ; preds = %26
  %41 = load ptr, ptr %16, align 8
  %42 = getelementptr inbounds nuw %struct._dcerpc_call_value, ptr %41, i32 0, i32 10
  %43 = load ptr, ptr %42, align 8
  store ptr %43, ptr %15, align 8
  br label %44

44:                                               ; preds = %40, %26
  %45 = load ptr, ptr %15, align 8
  %46 = icmp ne ptr %45, null
  br i1 %46, label %47, label %53

47:                                               ; preds = %44
  %48 = load ptr, ptr %15, align 8
  %49 = load ptr, ptr %10, align 8
  %50 = getelementptr inbounds nuw %struct._packet_info, ptr %49, i32 0, i32 3
  %51 = load i32, ptr %50, align 4
  %52 = call zeroext i1 @dcerpc_fetch_polhnd_data(ptr noundef %48, ptr noundef null, ptr noundef %17, ptr noundef null, ptr noundef null, i32 noundef %51)
  br label %53

53:                                               ; preds = %47, %44
  %54 = load i32, ptr %17, align 4
  switch i32 %54, label %60 [
    i32 65536, label %55
    i32 131072, label %56
    i32 196608, label %57
    i32 262144, label %58
    i32 327680, label %59
  ]

55:                                               ; preds = %53
  store ptr @samr_user_access_mask_info, ptr %18, align 8
  br label %60

56:                                               ; preds = %53
  store ptr @samr_connect_access_mask_info, ptr %18, align 8
  br label %60

57:                                               ; preds = %53
  store ptr @samr_domain_access_mask_info, ptr %18, align 8
  br label %60

58:                                               ; preds = %53
  store ptr @samr_group_access_mask_info, ptr %18, align 8
  br label %60

59:                                               ; preds = %53
  store ptr @samr_alias_access_mask_info, ptr %18, align 8
  br label %60

60:                                               ; preds = %53, %59, %58, %57, %56, %55
  %61 = load ptr, ptr %8, align 8
  %62 = load i32, ptr %9, align 4
  %63 = load ptr, ptr %10, align 8
  %64 = load ptr, ptr %11, align 8
  %65 = load ptr, ptr %13, align 8
  %66 = load i64, ptr %14, align 8
  %67 = trunc i64 %66 to i32
  %68 = load ptr, ptr %18, align 8
  %69 = call i32 @dissect_nt_sec_desc(ptr noundef %61, i32 noundef %62, ptr noundef %63, ptr noundef %64, ptr noundef %65, i1 noundef zeroext true, i32 noundef %67, ptr noundef %68)
  %70 = load i64, ptr %14, align 8
  %71 = trunc i64 %70 to i32
  %72 = load i32, ptr %9, align 4
  %73 = add i32 %72, %71
  store i32 %73, ptr %9, align 4
  %74 = load i32, ptr %9, align 4
  store i32 %74, ptr %7, align 4
  store i32 1, ptr %19, align 4
  br label %75

75:                                               ; preds = %60, %24
  call void @llvm.lifetime.end.p0(i64 8, ptr %18) #4
  call void @llvm.lifetime.end.p0(i64 4, ptr %17) #4
  call void @llvm.lifetime.end.p0(i64 8, ptr %16) #4
  call void @llvm.lifetime.end.p0(i64 8, ptr %15) #4
  call void @llvm.lifetime.end.p0(i64 8, ptr %14) #4
  %76 = load i32, ptr %7, align 4
  ret i32 %76
}