; Function Attrs: null_pointer_is_valid sspstrong uwtable
define internal i32 @cnf_dissect_sec_desc_buf_(ptr noundef %0, i32 noundef %1, ptr noundef %2, ptr noundef %3, ptr noundef %4, ptr noundef %5) #0 {
  %7 = alloca i64, align 8
  %8 = alloca i32, align 4
  call void @llvm.lifetime.start.p0(i64 8, ptr nonnull %7) #5
  call void @llvm.lifetime.start.p0(i64 4, ptr nonnull %8) #5
  store i32 0, ptr %8, align 4
  %9 = getelementptr inbounds nuw i8, ptr %4, i64 25
  %10 = load i8, ptr %9, align 1, !range !6, !noundef !7
  %11 = trunc nuw i8 %10 to i1
  br i1 %11, label %36, label %12

12:                                               ; preds = %6
  %13 = load i32, ptr @hf_samr_sec_desc_buf_len, align 4
  %14 = call i32 @dissect_ndr_uint3264(ptr noundef %0, i32 noundef %1, ptr noundef %2, ptr noundef %3, ptr noundef %4, ptr noundef %5, i32 noundef %13, ptr noundef nonnull %7)
  %15 = getelementptr inbounds nuw i8, ptr %4, i64 64
  %16 = load ptr, ptr %15, align 8
  %.not = icmp eq ptr %16, null
  br i1 %.not, label %.thread, label %17

17:                                               ; preds = %12
  %18 = getelementptr inbounds nuw i8, ptr %16, i64 88
  %19 = load ptr, ptr %18, align 8
  %.not25 = icmp eq ptr %19, null
  br i1 %.not25, label %.thread, label %20

20:                                               ; preds = %17
  %21 = getelementptr inbounds nuw i8, ptr %2, i64 20
  %22 = load i32, ptr %21, align 4
  %23 = call zeroext i1 @dcerpc_fetch_polhnd_data(ptr noundef nonnull %19, ptr noundef null, ptr noundef nonnull %8, ptr noundef null, ptr noundef null, i32 noundef %22)
  %.pre = load i32, ptr %8, align 4
  %24 = add i32 %.pre, -65536
  br label %.thread

.thread:                                          ; preds = %12, %20, %17
  %25 = phi i32 [ -65536, %12 ], [ %24, %20 ], [ -65536, %17 ]
  %26 = call i32 @llvm.fshl.i32(i32 %25, i32 %25, i32 16)
  %27 = icmp ult i32 %26, 5
  br i1 %27, label %switch.lookup, label %29

switch.lookup:                                    ; preds = %.thread
  %28 = zext nneg i32 %26 to i64
  %switch.gep = getelementptr inbounds nuw [5 x ptr], ptr @switch.table.cnf_dissect_sec_desc_buf_, i64 0, i64 %28
  %switch.load = load ptr, ptr %switch.gep, align 8
  br label %29

29:                                               ; preds = %switch.lookup, %.thread
  %.0 = phi ptr [ null, %.thread ], [ %switch.load, %switch.lookup ]
  %30 = load i64, ptr %7, align 8
  %31 = trunc i64 %30 to i32
  %32 = call i32 @dissect_nt_sec_desc(ptr noundef %0, i32 noundef %14, ptr noundef %2, ptr noundef %3, ptr noundef %5, i1 noundef zeroext true, i32 noundef %31, ptr noundef %.0)
  %33 = load i64, ptr %7, align 8
  %34 = trunc i64 %33 to i32
  %35 = add i32 %14, %34
  br label %36

36:                                               ; preds = %6, %29
  %.023 = phi i32 [ %35, %29 ], [ %1, %6 ]
  call void @llvm.lifetime.end.p0(i64 4, ptr nonnull %8) #5
  call void @llvm.lifetime.end.p0(i64 8, ptr nonnull %7) #5
  ret i32 %.023
}